target datalayout = "e-m:e-p270:32:32-p271:32:32-p272:64:64-i64:64-i128:128-f80:128-n8:16:32:64-S128"
target triple = "x86_64-pc-linux-gnu"

%struct.codes_t = type { i16, i16 }

; Function Attrs: nounwind uwtable
define internal zeroext i16 @BinarySearchRange(ptr noundef %0, i32 noundef %1, i16 noundef zeroext %2) #0 {
  %4 = alloca i16, align 2
  %5 = alloca ptr, align 8
  %6 = alloca i32, align 4
  %7 = alloca i16, align 2
  %8 = alloca i32, align 4
  %9 = alloca i32, align 4
  %10 = alloca i32, align 4
  %11 = alloca i32, align 4
  %12 = alloca i32, align 4
  store ptr %0, ptr %5, align 8
  store i32 %1, ptr %6, align 4
  store i16 %2, ptr %7, align 2
  call void @llvm.lifetime.start.p0(i64 4, ptr %8) #2
  call void @llvm.lifetime.start.p0(i64 4, ptr %9) #2
  call void @llvm.lifetime.start.p0(i64 4, ptr %10) #2
  call void @llvm.lifetime.start.p0(i64 4, ptr %11) #2
  store i32 0, ptr %8, align 4
  %13 = load i32, ptr %6, align 4
  %14 = ashr i32 %13, 1
  store i32 %14, ptr %9, align 4
  br label %15

15:                                               ; preds = %214, %3
  %16 = load i32, ptr %8, align 4
  %17 = load i32, ptr %6, align 4
  %18 = icmp sle i32 %16, %17
  br i1 %18, label %19, label %219

19:                                               ; preds = %15
  %20 = load ptr, ptr %5, align 8
  %21 = load i32, ptr %9, align 4
  %22 = sext i32 %21 to i64
  %23 = getelementptr inbounds %struct.codes_t, ptr %20, i64 %22
  %24 = getelementptr inbounds nuw %struct.codes_t, ptr %23, i32 0, i32 0
  %25 = load i16, ptr %24, align 2
  %26 = zext i16 %25 to i32
  %27 = load i16, ptr %7, align 2
  %28 = zext i16 %27 to i32
  %29 = icmp sle i32 %26, %28
  br i1 %29, label %30, label %195

30:                                               ; preds = %19
  %31 = load ptr, ptr %5, align 8
  %32 = load i32, ptr %9, align 4
  %33 = add i32 %32, 1
  %34 = sext i32 %33 to i64
  %35 = getelementptr inbounds %struct.codes_t, ptr %31, i64 %34
  %36 = getelementptr inbounds nuw %struct.codes_t, ptr %35, i32 0, i32 0
  %37 = load i16, ptr %36, align 2
  %38 = zext i16 %37 to i32
  %39 = load i16, ptr %7, align 2
  %40 = zext i16 %39 to i32
  %41 = icmp sgt i32 %38, %40
  br i1 %41, label %42, label %195

42:                                               ; preds = %30
  %43 = load ptr, ptr %5, align 8
  %44 = load i32, ptr %9, align 4
  %45 = sext i32 %44 to i64
  %46 = getelementptr inbounds %struct.codes_t, ptr %43, i64 %45
  %47 = getelementptr inbounds nuw %struct.codes_t, ptr %46, i32 0, i32 1
  %48 = load i16, ptr %47, align 2
  %49 = zext i16 %48 to i32
  %50 = icmp eq i32 0, %49
  br i1 %50, label %51, label %52

51:                                               ; preds = %42
  store i16 0, ptr %4, align 2
  store i32 1, ptr %12, align 4
  br label %220

52:                                               ; preds = %42
  %53 = load i16, ptr %7, align 2
  %54 = zext i16 %53 to i32
  %55 = icmp uge i32 %54, 41280
  br i1 %55, label %56, label %129

56:                                               ; preds = %52
  %57 = load i16, ptr %7, align 2
  %58 = zext i16 %57 to i32
  %59 = and i32 %58, 65280
  %60 = load ptr, ptr %5, align 8
  %61 = load i32, ptr %9, align 4
  %62 = sext i32 %61 to i64
  %63 = getelementptr inbounds %struct.codes_t, ptr %60, i64 %62
  %64 = getelementptr inbounds nuw %struct.codes_t, ptr %63, i32 0, i32 0
  %65 = load i16, ptr %64, align 2
  %66 = zext i16 %65 to i32
  %67 = and i32 %66, 65280
  %68 = sub i32 %59, %67
  %69 = ashr i32 %68, 8
  store i32 %69, ptr %11, align 4
  %70 = load i16, ptr %7, align 2
  %71 = zext i16 %70 to i32
  %72 = and i32 %71, 255
  store i32 %72, ptr %6, align 4
  %73 = load ptr, ptr %5, align 8
  %74 = load i32, ptr %9, align 4
  %75 = sext i32 %74 to i64
  %76 = getelementptr inbounds %struct.codes_t, ptr %73, i64 %75
  %77 = getelementptr inbounds nuw %struct.codes_t, ptr %76, i32 0, i32 0
  %78 = load i16, ptr %77, align 2
  %79 = zext i16 %78 to i32
  %80 = and i32 %79, 255
  store i32 %80, ptr %8, align 4
  %81 = load i32, ptr %11, align 4
  %82 = mul i32 %81, 157
  %83 = load i32, ptr %6, align 4
  %84 = add i32 %82, %83
  %85 = load i32, ptr %8, align 4
  %86 = sub i32 %84, %85
  %87 = load i32, ptr %6, align 4
  %88 = icmp sge i32 %87, 161
  br i1 %88, label %89, label %93

89:                                               ; preds = %56
  %90 = load i32, ptr %8, align 4
  %91 = icmp sge i32 %90, 161
  %92 = select i1 %91, i32 0, i32 -34
  br label %97

93:                                               ; preds = %56
  %94 = load i32, ptr %8, align 4
  %95 = icmp sge i32 %94, 161
  %96 = select i1 %95, i32 34, i32 0
  br label %97

97:                                               ; preds = %93, %89
  %98 = phi i32 [ %92, %89 ], [ %96, %93 ]
  %99 = add i32 %86, %98
  store i32 %99, ptr %10, align 4
  %100 = load ptr, ptr %5, align 8
  %101 = load i32, ptr %9, align 4
  %102 = sext i32 %101 to i64
  %103 = getelementptr inbounds %struct.codes_t, ptr %100, i64 %102
  %104 = getelementptr inbounds nuw %struct.codes_t, ptr %103, i32 0, i32 1
  %105 = load i16, ptr %104, align 2
  %106 = zext i16 %105 to i32
  %107 = and i32 %106, 255
  %108 = load i32, ptr %10, align 4
  %109 = add i32 %107, %108
  %110 = sub i32 %109, 33
  store i32 %110, ptr %11, align 4
  %111 = load ptr, ptr %5, align 8
  %112 = load i32, ptr %9, align 4
  %113 = sext i32 %112 to i64
  %114 = getelementptr inbounds %struct.codes_t, ptr %111, i64 %113
  %115 = getelementptr inbounds nuw %struct.codes_t, ptr %114, i32 0, i32 1
  %116 = load i16, ptr %115, align 2
  %117 = zext i16 %116 to i32
  %118 = and i32 %117, 65280
  %119 = load i32, ptr %11, align 4
  %120 = sdiv i32 %119, 94
  %121 = shl i32 %120, 8
  %122 = add i32 %118, %121
  %123 = add i32 %122, 33
  %124 = load i32, ptr %11, align 4
  %125 = srem i32 %124, 94
  %126 = add i32 %123, %125
  store i32 %126, ptr %11, align 4
  %127 = load i32, ptr %11, align 4
  %128 = trunc i32 %127 to i16
  store i16 %128, ptr %4, align 2
  store i32 1, ptr %12, align 4
  br label %220

129:                                              ; preds = %52
  %130 = load i16, ptr %7, align 2
  %131 = zext i16 %130 to i32
  %132 = and i32 %131, 65280
  %133 = load ptr, ptr %5, align 8
  %134 = load i32, ptr %9, align 4
  %135 = sext i32 %134 to i64
  %136 = getelementptr inbounds %struct.codes_t, ptr %133, i64 %135
  %137 = getelementptr inbounds nuw %struct.codes_t, ptr %136, i32 0, i32 0
  %138 = load i16, ptr %137, align 2
  %139 = zext i16 %138 to i32
  %140 = and i32 %139, 65280
  %141 = sub i32 %132, %140
  %142 = ashr i32 %141, 8
  store i32 %142, ptr %11, align 4
  %143 = load i32, ptr %11, align 4
  %144 = mul i32 %143, 94
  %145 = load i16, ptr %7, align 2
  %146 = zext i16 %145 to i32
  %147 = and i32 %146, 255
  %148 = load ptr, ptr %5, align 8
  %149 = load i32, ptr %9, align 4
  %150 = sext i32 %149 to i64
  %151 = getelementptr inbounds %struct.codes_t, ptr %148, i64 %150
  %152 = getelementptr inbounds nuw %struct.codes_t, ptr %151, i32 0, i32 0
  %153 = load i16, ptr %152, align 2
  %154 = zext i16 %153 to i32
  %155 = and i32 %154, 255
  %156 = sub i32 %147, %155
  %157 = add i32 %144, %156
  store i32 %157, ptr %10, align 4
  %158 = load ptr, ptr %5, align 8
  %159 = load i32, ptr %9, align 4
  %160 = sext i32 %159 to i64
  %161 = getelementptr inbounds %struct.codes_t, ptr %158, i64 %160
  %162 = getelementptr inbounds nuw %struct.codes_t, ptr %161, i32 0, i32 1
  %163 = load i16, ptr %162, align 2
  %164 = zext i16 %163 to i32
  %165 = and i32 %164, 255
  store i32 %165, ptr %8, align 4
  %166 = load i32, ptr %8, align 4
  %167 = load i32, ptr %10, align 4
  %168 = add i32 %166, %167
  %169 = load i32, ptr %8, align 4
  %170 = icmp sge i32 %169, 161
  %171 = select i1 %170, i32 98, i32 64
  %172 = sub i32 %168, %171
  store i32 %172, ptr %11, align 4
  %173 = load i32, ptr %11, align 4
  %174 = srem i32 %173, 157
  store i32 %174, ptr %8, align 4
  %175 = load ptr, ptr %5, align 8
  %176 = load i32, ptr %9, align 4
  %177 = sext i32 %176 to i64
  %178 = getelementptr inbounds %struct.codes_t, ptr %175, i64 %177
  %179 = getelementptr inbounds nuw %struct.codes_t, ptr %178, i32 0, i32 1
  %180 = load i16, ptr %179, align 2
  %181 = zext i16 %180 to i32
  %182 = and i32 %181, 65280
  %183 = load i32, ptr %11, align 4
  %184 = sdiv i32 %183, 157
  %185 = shl i32 %184, 8
  %186 = add i32 %182, %185
  %187 = load i32, ptr %8, align 4
  %188 = icmp sgt i32 %187, 62
  %189 = select i1 %188, i32 98, i32 64
  %190 = add i32 %186, %189
  %191 = load i32, ptr %8, align 4
  %192 = add i32 %190, %191
  store i32 %192, ptr %11, align 4
  %193 = load i32, ptr %11, align 4
  %194 = trunc i32 %193 to i16
  store i16 %194, ptr %4, align 2
  store i32 1, ptr %12, align 4
  br label %220

195:                                              ; preds = %30, %19
  %196 = load ptr, ptr %5, align 8
  %197 = load i32, ptr %9, align 4
  %198 = sext i32 %197 to i64
  %199 = getelementptr inbounds %struct.codes_t, ptr %196, i64 %198
  %200 = getelementptr inbounds nuw %struct.codes_t, ptr %199, i32 0, i32 0
  %201 = load i16, ptr %200, align 2
  %202 = zext i16 %201 to i32
  %203 = load i16, ptr %7, align 2
  %204 = zext i16 %203 to i32
  %205 = icmp sgt i32 %202, %204
  br i1 %205, label %206, label %209

206:                                              ; preds = %195
  %207 = load i32, ptr %9, align 4
  %208 = sub i32 %207, 1
  store i32 %208, ptr %6, align 4
  br label %212

209:                                              ; preds = %195
  %210 = load i32, ptr %9, align 4
  %211 = add i32 %210, 1
  store i32 %211, ptr %8, align 4
  br label %212

212:                                              ; preds = %209, %206
  br label %213

213:                                              ; preds = %212
  br label %214

214:                                              ; preds = %213
  %215 = load i32, ptr %8, align 4
  %216 = load i32, ptr %6, align 4
  %217 = add i32 %215, %216
  %218 = ashr i32 %217, 1
  store i32 %218, ptr %9, align 4
  br label %15, !llvm.loop !6

219:                                              ; preds = %15
  store i16 0, ptr %4, align 2
  store i32 1, ptr %12, align 4
  br label %220

220:                                              ; preds = %219, %129, %97, %51
  call void @llvm.lifetime.end.p0(i64 4, ptr %11) #2
  call void @llvm.lifetime.end.p0(i64 4, ptr %10) #2
  call void @llvm.lifetime.end.p0(i64 4, ptr %9) #2
  call void @llvm.lifetime.end.p0(i64 4, ptr %8) #2
  %221 = load i16, ptr %4, align 2
  ret i16 %221
}