; Function Attrs: nofree norecurse nosync nounwind memory(argmem: read) uwtable
define internal fastcc zeroext i16 @BinarySearchRange(ptr noundef readonly captures(none) %0, i32 noundef range(i32 23, 48) %1, i16 noundef zeroext %2) unnamed_addr #1 {
  %4 = lshr i32 %1, 1
  br label %5

5:                                                ; preds = %3, %68
  %.074 = phi i32 [ %4, %3 ], [ %72, %68 ]
  %.05873 = phi i32 [ 0, %3 ], [ %.1, %68 ]
  %.06072 = phi i32 [ %1, %3 ], [ %.161, %68 ]
  %6 = sext i32 %.074 to i64
  %7 = getelementptr inbounds %struct.codes_t, ptr %0, i64 %6
  %8 = load i16, ptr %7, align 2
  %.not65 = icmp ugt i16 %8, %2
  br i1 %.not65, label %68, label %9

9:                                                ; preds = %5
  %10 = getelementptr i8, ptr %7, i64 4
  %11 = load i16, ptr %10, align 2
  %12 = icmp ugt i16 %11, %2
  br i1 %12, label %13, label %68

13:                                               ; preds = %9
  %14 = zext i16 %8 to i32
  %15 = zext i16 %2 to i32
  %16 = getelementptr inbounds nuw i8, ptr %7, i64 2
  %17 = load i16, ptr %16, align 2
  %18 = zext i16 %17 to i32
  %19 = icmp eq i16 %17, 0
  br i1 %19, label %.loopexit, label %20

20:                                               ; preds = %13
  %21 = icmp ugt i16 %2, -24257
  %22 = and i32 %14, 65280
  %23 = sub nsw i32 %15, %22
  br i1 %21, label %24, label %48

24:                                               ; preds = %20
  %25 = ashr i32 %23, 8
  %26 = and i32 %15, 255
  %27 = and i32 %14, 255
  %28 = mul nsw i32 %25, 157
  %29 = icmp samesign ugt i32 %26, 160
  %30 = icmp samesign ugt i32 %27, 160
  %31 = select i1 %30, i32 0, i32 -34
  %32 = select i1 %30, i32 34, i32 0
  %33 = select i1 %29, i32 %31, i32 %32
  %34 = and i32 %18, 255
  %35 = add nsw i32 %26, -33
  %36 = sub nsw i32 %35, %27
  %37 = add nsw i32 %36, %28
  %38 = add nsw i32 %37, %33
  %39 = add nsw i32 %38, %34
  %40 = and i32 %18, 65280
  %41 = sdiv i32 %39, 94
  %42 = shl nsw i32 %41, 8
  %43 = srem i32 %39, 94
  %44 = or disjoint i32 %40, 33
  %45 = add nsw i32 %44, %43
  %46 = add nsw i32 %45, %42
  %47 = trunc i32 %46 to i16
  br label %.loopexit

48:                                               ; preds = %20
  %49 = lshr i32 %23, 8
  %50 = mul nuw nsw i32 %49, 94
  %51 = and i32 %15, 255
  %52 = and i32 %14, 255
  %53 = sub nsw i32 %51, %52
  %54 = add nsw i32 %53, %50
  %55 = and i32 %18, 255
  %56 = add nsw i32 %54, %55
  %57 = icmp samesign ugt i32 %55, 160
  %.neg = select i1 %57, i32 65438, i32 65472
  %58 = add nsw i32 %56, %.neg
  %.lhs.trunc = trunc i32 %58 to i16
  %59 = srem i16 %.lhs.trunc, 157
  %60 = and i16 %17, -256
  %61 = sdiv i16 %.lhs.trunc, 157
  %62 = shl i16 %61, 8
  %63 = icmp sgt i16 %59, 62
  %64 = select i1 %63, i16 98, i16 64
  %65 = add i16 %59, %60
  %66 = add i16 %65, %62
  %67 = add i16 %66, %64
  br label %.loopexit

68:                                               ; preds = %9, %5
  %69 = add nsw i32 %.074, -1
  %70 = add nsw i32 %.074, 1
  %.161 = select i1 %.not65, i32 %69, i32 %.06072
  %.1 = select i1 %.not65, i32 %.05873, i32 %70
  %71 = add i32 %.1, %.161
  %72 = ashr i32 %71, 1
  %.not = icmp sgt i32 %.1, %.161
  br i1 %.not, label %.loopexit, label %5, !llvm.loop !6

.loopexit:                                        ; preds = %68, %13, %48, %24
  %.059 = phi i16 [ %47, %24 ], [ %67, %48 ], [ 0, %13 ], [ 0, %68 ]
  ret i16 %.059
}